target datalayout = "e-m:e-p270:32:32-p271:32:32-p272:64:64-i64:64-i128:128-f80:128-n8:16:32:64-S128"
target triple = "x86_64-unknown-linux-gnu"

%"class.icu_75::UnicodeString" = type { %"class.icu_75::Replaceable", %"union.icu_75::UnicodeString::StackBufferOrFields" }
%"class.icu_75::Replaceable" = type { %"class.icu_75::UObject" }
%"class.icu_75::UObject" = type { ptr }
%"union.icu_75::UnicodeString::StackBufferOrFields" = type { %struct.anon.0, [32 x i8] }
%struct.anon.0 = type { i16, i32, i32, ptr }
%"class.icu_75::UVector" = type { %"class.icu_75::UObject", i32, i32, ptr, ptr, ptr }
%"class.icu_75::TransliteratorRegistry" = type { [8 x i8], %"class.icu_75::Hashtable", %"class.icu_75::Hashtable", %"class.icu_75::UVector", %"class.icu_75::Hashtable" }
%"class.icu_75::Hashtable" = type { ptr, %struct.UHashtable }
%struct.UHashtable = type { ptr, ptr, ptr, ptr, ptr, ptr, i32, i32, i32, i32, float, float, i8, i8 }
%struct.UHashElement = type { i32, %union.UElement, %union.UElement }
%union.UElement = type { ptr }

; Function Attrs: mustprogress nounwind uwtable
define linkonce_odr void @_ZN6icu_7513UnicodeString14setShortLengthEi(ptr noundef nonnull align 8 dereferenceable(64) %this, i32 noundef %len) #0 comdat align 2 {
entry:
  %this.addr = alloca ptr, align 8
  %len.addr = alloca i32, align 4
  store ptr %this, ptr %this.addr, align 8
  store i32 %len, ptr %len.addr, align 4
  %this1 = load ptr, ptr %this.addr, align 8
  %fUnion = getelementptr inbounds %"class.icu_75::UnicodeString", ptr %this1, i32 0, i32 1
  %fLengthAndFlags = getelementptr inbounds %struct.anon.0, ptr %fUnion, i32 0, i32 0
  %0 = load i16, ptr %fLengthAndFlags, align 8
  %conv = sext i16 %0 to i32
  %and = and i32 %conv, 31
  %1 = load i32, ptr %len.addr, align 4
  %shl = shl i32 %1, 5
  %or = or i32 %and, %shl
  %conv2 = trunc i32 %or to i16
  %fUnion3 = getelementptr inbounds %"class.icu_75::UnicodeString", ptr %this1, i32 0, i32 1
  %fLengthAndFlags4 = getelementptr inbounds %struct.anon.0, ptr %fUnion3, i32 0, i32 0
  store i16 %conv2, ptr %fLengthAndFlags4, align 8
  ret void
}

; Function Attrs: mustprogress nounwind uwtable
define linkonce_odr noundef i32 @_ZNK6icu_7513UnicodeString14getShortLengthEv(ptr noundef nonnull align 8 dereferenceable(64) %this) #0 comdat align 2 {
entry:
  %this.addr = alloca ptr, align 8
  store ptr %this, ptr %this.addr, align 8
  %this1 = load ptr, ptr %this.addr, align 8
  %fUnion = getelementptr inbounds %"class.icu_75::UnicodeString", ptr %this1, i32 0, i32 1
  %fLengthAndFlags = getelementptr inbounds %struct.anon.0, ptr %fUnion, i32 0, i32 0
  %0 = load i16, ptr %fLengthAndFlags, align 8
  %conv = sext i16 %0 to i32
  %shr = ashr i32 %conv, 5
  ret i32 %shr
}

; Function Attrs: mustprogress nounwind uwtable
define linkonce_odr noundef signext i8 @_ZNK6icu_7513UnicodeString14hasShortLengthEv(ptr noundef nonnull align 8 dereferenceable(64) %this) #0 comdat align 2 {
entry:
  %this.addr = alloca ptr, align 8
  store ptr %this, ptr %this.addr, align 8
  %this1 = load ptr, ptr %this.addr, align 8
  %fUnion = getelementptr inbounds %"class.icu_75::UnicodeString", ptr %this1, i32 0, i32 1
  %fLengthAndFlags = getelementptr inbounds %struct.anon.0, ptr %fUnion, i32 0, i32 0
  %0 = load i16, ptr %fLengthAndFlags, align 8
  %conv = sext i16 %0 to i32
  %cmp = icmp sge i32 %conv, 0
  %conv2 = zext i1 %cmp to i8
  ret i8 %conv2
}

; Function Attrs: mustprogress uwtable
define linkonce_odr void @_ZN6icu_7513UnicodeString9setLengthEi(ptr noundef nonnull align 8 dereferenceable(64) %this, i32 noundef %len) #1 comdat align 2 {
entry:
  %this.addr = alloca ptr, align 8
  %len.addr = alloca i32, align 4
  store ptr %this, ptr %this.addr, align 8
  store i32 %len, ptr %len.addr, align 4
  %this1 = load ptr, ptr %this.addr, align 8
  %0 = load i32, ptr %len.addr, align 4
  %cmp = icmp sle i32 %0, 1023
  br i1 %cmp, label %if.then, label %if.else

if.then:                                          ; preds = %entry
  %1 = load i32, ptr %len.addr, align 4
  call void @_ZN6icu_7513UnicodeString14setShortLengthEi(ptr noundef nonnull align 8 dereferenceable(64) %this1, i32 noundef %1)
  br label %if.end

if.else:                                          ; preds = %entry
  %fUnion = getelementptr inbounds %"class.icu_75::UnicodeString", ptr %this1, i32 0, i32 1
  %fLengthAndFlags = getelementptr inbounds %struct.anon.0, ptr %fUnion, i32 0, i32 0
  %2 = load i16, ptr %fLengthAndFlags, align 8
  %conv = sext i16 %2 to i32
  %or = or i32 %conv, 65504
  %conv2 = trunc i32 %or to i16
  store i16 %conv2, ptr %fLengthAndFlags, align 8
  %3 = load i32, ptr %len.addr, align 4
  %fUnion3 = getelementptr inbounds %"class.icu_75::UnicodeString", ptr %this1, i32 0, i32 1
  %fLength = getelementptr inbounds %struct.anon.0, ptr %fUnion3, i32 0, i32 1
  store i32 %3, ptr %fLength, align 4
  br label %if.end

if.end:                                           ; preds = %if.else, %if.then
  ret void
}

; Function Attrs: mustprogress uwtable
define linkonce_odr noundef i32 @_ZNK6icu_7513UnicodeString6lengthEv(ptr noundef nonnull align 8 dereferenceable(64) %this) #1 comdat align 2 {
entry:
  %this.addr = alloca ptr, align 8
  store ptr %this, ptr %this.addr, align 8
  %this1 = load ptr, ptr %this.addr, align 8
  %call = call noundef signext i8 @_ZNK6icu_7513UnicodeString14hasShortLengthEv(ptr noundef nonnull align 8 dereferenceable(64) %this1)
  %tobool = icmp ne i8 %call, 0
  br i1 %tobool, label %cond.true, label %cond.false

cond.true:                                        ; preds = %entry
  %call2 = call noundef i32 @_ZNK6icu_7513UnicodeString14getShortLengthEv(ptr noundef nonnull align 8 dereferenceable(64) %this1)
  br label %cond.end

cond.false:                                       ; preds = %entry
  %fUnion = getelementptr inbounds %"class.icu_75::UnicodeString", ptr %this1, i32 0, i32 1
  %fLength = getelementptr inbounds %struct.anon.0, ptr %fUnion, i32 0, i32 1
  %0 = load i32, ptr %fLength, align 4
  br label %cond.end

cond.end:                                         ; preds = %cond.false, %cond.true
  %cond = phi i32 [ %call2, %cond.true ], [ %0, %cond.false ]
  ret i32 %cond
}

; Function Attrs: mustprogress nounwind uwtable
define linkonce_odr noundef signext i8 @_ZNK6icu_7513UnicodeString7isBogusEv(ptr noundef nonnull align 8 dereferenceable(64) %this) #0 comdat align 2 {
entry:
  %this.addr = alloca ptr, align 8
  store ptr %this, ptr %this.addr, align 8
  %this1 = load ptr, ptr %this.addr, align 8
  %fUnion = getelementptr inbounds %"class.icu_75::UnicodeString", ptr %this1, i32 0, i32 1
  %fLengthAndFlags = getelementptr inbounds %struct.anon.0, ptr %fUnion, i32 0, i32 0
  %0 = load i16, ptr %fLengthAndFlags, align 8
  %conv = sext i16 %0 to i32
  %and = and i32 %conv, 1
  %conv2 = trunc i32 %and to i8
  ret i8 %conv2
}

; Function Attrs: mustprogress uwtable
define linkonce_odr noundef ptr @_ZNK6icu_759Hashtable11nextElementERi(ptr noundef nonnull align 8 dereferenceable(88) %this, ptr noundef nonnull align 4 dereferenceable(4) %pos) #1 comdat align 2 {
entry:
  %this.addr = alloca ptr, align 8
  %pos.addr = alloca ptr, align 8
  store ptr %this, ptr %this.addr, align 8
  store ptr %pos, ptr %pos.addr, align 8
  %this1 = load ptr, ptr %this.addr, align 8
  %hash = getelementptr inbounds %"class.icu_75::Hashtable", ptr %this1, i32 0, i32 0
  %0 = load ptr, ptr %hash, align 8
  %1 = load ptr, ptr %pos.addr, align 8
  %call = call ptr @uhash_nextElement_75(ptr noundef %0, ptr noundef %1)
  ret ptr %call
}

; Function Attrs: mustprogress uwtable
define linkonce_odr noundef signext i8 @_ZN6icu_7513UnicodeString8truncateEi(ptr noundef nonnull align 8 dereferenceable(64) %this, i32 noundef %targetLength) #1 comdat align 2 {
entry:
  %retval = alloca i8, align 1
  %this.addr = alloca ptr, align 8
  %targetLength.addr = alloca i32, align 4
  store ptr %this, ptr %this.addr, align 8
  store i32 %targetLength, ptr %targetLength.addr, align 4
  %this1 = load ptr, ptr %this.addr, align 8
  %call = call noundef signext i8 @_ZNK6icu_7513UnicodeString7isBogusEv(ptr noundef nonnull align 8 dereferenceable(64) %this1)
  %tobool = icmp ne i8 %call, 0
  br i1 %tobool, label %land.lhs.true, label %if.else

land.lhs.true:                                    ; preds = %entry
  %0 = load i32, ptr %targetLength.addr, align 4
  %cmp = icmp eq i32 %0, 0
  br i1 %cmp, label %if.then, label %if.else

if.then:                                          ; preds = %land.lhs.true
  call void @_ZN6icu_7513UnicodeString7unBogusEv(ptr noundef nonnull align 8 dereferenceable(64) %this1)
  store i8 0, ptr %retval, align 1
  br label %return

if.else:                                          ; preds = %land.lhs.true, %entry
  %1 = load i32, ptr %targetLength.addr, align 4
  %call2 = call noundef i32 @_ZNK6icu_7513UnicodeString6lengthEv(ptr noundef nonnull align 8 dereferenceable(64) %this1)
  %cmp3 = icmp ult i32 %1, %call2
  br i1 %cmp3, label %if.then4, label %if.else5

if.then4:                                         ; preds = %if.else
  %2 = load i32, ptr %targetLength.addr, align 4
  call void @_ZN6icu_7513UnicodeString9setLengthEi(ptr noundef nonnull align 8 dereferenceable(64) %this1, i32 noundef %2)
  store i8 1, ptr %retval, align 1
  br label %return

if.else5:                                         ; preds = %if.else
  store i8 0, ptr %retval, align 1
  br label %return

return:                                           ; preds = %if.else5, %if.then4, %if.then
  %3 = load i8, ptr %retval, align 1
  ret i8 %3
}

; Function Attrs: mustprogress uwtable
define linkonce_odr noundef ptr @_ZNK6icu_759Hashtable3getERKNS_13UnicodeStringE(ptr noundef nonnull align 8 dereferenceable(88) %this, ptr noundef nonnull align 8 dereferenceable(64) %key) #1 comdat align 2 {
entry:
  %this.addr = alloca ptr, align 8
  %key.addr = alloca ptr, align 8
  store ptr %this, ptr %this.addr, align 8
  store ptr %key, ptr %key.addr, align 8
  %this1 = load ptr, ptr %this.addr, align 8
  %hash = getelementptr inbounds %"class.icu_75::Hashtable", ptr %this1, i32 0, i32 0
  %0 = load ptr, ptr %hash, align 8
  %1 = load ptr, ptr %key.addr, align 8
  %call = call ptr @uhash_get_75(ptr noundef %0, ptr noundef %1)
  ret ptr %call
}

; Function Attrs: mustprogress uwtable
define noundef nonnull align 8 dereferenceable(64) ptr @_ZNK6icu_7522TransliteratorRegistry18getAvailableTargetEiRKNS_13UnicodeStringERS1_(ptr noundef nonnull align 8 dereferenceable(312) %this, i32 noundef %index, ptr noundef nonnull align 8 dereferenceable(64) %source, ptr noundef nonnull align 8 dereferenceable(64) %result) #1 align 2 {
entry:
  %retval = alloca ptr, align 8
  %this.addr = alloca ptr, align 8
  %index.addr = alloca i32, align 4
  %source.addr = alloca ptr, align 8
  %result.addr = alloca ptr, align 8
  %targets = alloca ptr, align 8
  %pos = alloca i32, align 4
  %e = alloca ptr, align 8
  store ptr %this, ptr %this.addr, align 8
  store i32 %index, ptr %index.addr, align 4
  store ptr %source, ptr %source.addr, align 8
  store ptr %result, ptr %result.addr, align 8
  %this1 = load ptr, ptr %this.addr, align 8
  %specDAG = getelementptr inbounds %"class.icu_75::TransliteratorRegistry", ptr %this1, i32 0, i32 2
  %0 = load ptr, ptr %source.addr, align 8
  %call = call noundef ptr @_ZNK6icu_759Hashtable3getERKNS_13UnicodeStringE(ptr noundef nonnull align 8 dereferenceable(88) %specDAG, ptr noundef nonnull align 8 dereferenceable(64) %0)
  store ptr %call, ptr %targets, align 8
  %1 = load ptr, ptr %targets, align 8
  %cmp = icmp eq ptr %1, null
  br i1 %cmp, label %if.then, label %if.end

if.then:                                          ; preds = %entry
  %2 = load ptr, ptr %result.addr, align 8
  %call2 = call noundef signext i8 @_ZN6icu_7513UnicodeString8truncateEi(ptr noundef nonnull align 8 dereferenceable(64) %2, i32 noundef 0)
  %3 = load ptr, ptr %result.addr, align 8
  store ptr %3, ptr %retval, align 8
  br label %return

if.end:                                           ; preds = %entry
  store i32 -1, ptr %pos, align 4
  store ptr null, ptr %e, align 8
  br label %while.cond

while.cond:                                       ; preds = %if.end7, %if.end
  %4 = load i32, ptr %index.addr, align 4
  %dec = add nsw i32 %4, -1
  store i32 %dec, ptr %index.addr, align 4
  %cmp3 = icmp sge i32 %4, 0
  br i1 %cmp3, label %while.body, label %while.end

while.body:                                       ; preds = %while.cond
  %5 = load ptr, ptr %targets, align 8
  %call4 = call noundef ptr @_ZNK6icu_759Hashtable11nextElementERi(ptr noundef nonnull align 8 dereferenceable(88) %5, ptr noundef nonnull align 4 dereferenceable(4) %pos)
  store ptr %call4, ptr %e, align 8
  %6 = load ptr, ptr %e, align 8
  %cmp5 = icmp eq ptr %6, null
  br i1 %cmp5, label %if.then6, label %if.end7

if.then6:                                         ; preds = %while.body
  br label %while.end

if.end7:                                          ; preds = %while.body
  br label %while.cond, !llvm.loop !16

while.end:                                        ; preds = %if.then6, %while.cond
  %7 = load ptr, ptr %e, align 8
  %cmp8 = icmp eq ptr %7, null
  br i1 %cmp8, label %if.then9, label %if.else

if.then9:                                         ; preds = %while.end
  %8 = load ptr, ptr %result.addr, align 8
  %call10 = call noundef signext i8 @_ZN6icu_7513UnicodeString8truncateEi(ptr noundef nonnull align 8 dereferenceable(64) %8, i32 noundef 0)
  br label %if.end12

if.else:                                          ; preds = %while.end
  %9 = load ptr, ptr %e, align 8
  %key = getelementptr inbounds %struct.UHashElement, ptr %9, i32 0, i32 2
  %10 = load ptr, ptr %key, align 8
  %11 = load ptr, ptr %result.addr, align 8
  %call11 = call noundef nonnull align 8 dereferenceable(64) ptr @_ZN6icu_7513UnicodeStringaSERKS0_(ptr noundef nonnull align 8 dereferenceable(64) %11, ptr noundef nonnull align 8 dereferenceable(64) %10)
  br label %if.end12

if.end12:                                         ; preds = %if.else, %if.then9
  %12 = load ptr, ptr %result.addr, align 8
  store ptr %12, ptr %retval, align 8
  br label %return

return:                                           ; preds = %if.end12, %if.then
  %13 = load ptr, ptr %retval, align 8
  ret ptr %13
}