; Function Attrs: mustprogress uwtable
define noundef nonnull align 8 dereferenceable(64) ptr @_ZNK6icu_7522TransliteratorRegistry18getAvailableTargetEiRKNS_13UnicodeStringERS1_(ptr nocapture noundef nonnull readonly align 8 dereferenceable(312) %this, i32 noundef %index, ptr noundef nonnull align 8 dereferenceable(64) %source, ptr noundef nonnull returned align 8 dereferenceable(64) %result) local_unnamed_addr #1 align 2 {
entry:
  %pos = alloca i32, align 4
  %specDAG = getelementptr inbounds i8, ptr %this, i64 96
  %0 = load ptr, ptr %specDAG, align 8
  %call.i = tail call noundef ptr @uhash_get_75(ptr noundef %0, ptr noundef nonnull %source)
  %cmp = icmp eq ptr %call.i, null
  br i1 %cmp, label %if.then, label %if.end

if.then:                                          ; preds = %entry
  %fUnion.i.i = getelementptr inbounds i8, ptr %result, i64 8
  %1 = load i16, ptr %fUnion.i.i, align 8
  %conv2.i5.i = and i16 %1, 1
  %tobool.i.not = icmp eq i16 %conv2.i5.i, 0
  br i1 %tobool.i.not, label %if.else.i, label %if.then.i

if.then.i:                                        ; preds = %if.then
  tail call void @_ZN6icu_7513UnicodeString7unBogusEv(ptr noundef nonnull align 8 dereferenceable(64) %result)
  br label %return

if.else.i:                                        ; preds = %if.then
  %cmp.i.i.i = icmp slt i16 %1, 0
  %2 = ashr i16 %1, 5
  %shr.i.i.i = sext i16 %2 to i32
  %fLength.i.i = getelementptr inbounds i8, ptr %result, i64 12
  %3 = load i32, ptr %fLength.i.i, align 4
  %cond.i.i = select i1 %cmp.i.i.i, i32 %3, i32 %shr.i.i.i
  %cmp3.i.not = icmp eq i32 %cond.i.i, 0
  br i1 %cmp3.i.not, label %return, label %if.then4.i

if.then4.i:                                       ; preds = %if.else.i
  %4 = and i16 %1, 30
  store i16 %4, ptr %fUnion.i.i, align 8
  br label %return

if.end:                                           ; preds = %entry
  store i32 -1, ptr %pos, align 4
  %cmp325 = icmp sgt i32 %index, -1
  br i1 %cmp325, label %while.body, label %if.then9

while.cond:                                       ; preds = %while.body
  %dec = add nsw i32 %index.addr.026, -1
  %cmp3 = icmp sgt i32 %index.addr.026, 0
  br i1 %cmp3, label %while.body, label %if.else, !llvm.loop !14

while.body:                                       ; preds = %if.end, %while.cond
  %index.addr.026 = phi i32 [ %dec, %while.cond ], [ %index, %if.end ]
  %5 = load ptr, ptr %call.i, align 8
  %call.i8 = call noundef ptr @uhash_nextElement_75(ptr noundef %5, ptr noundef nonnull %pos)
  %cmp5 = icmp eq ptr %call.i8, null
  br i1 %cmp5, label %if.then9, label %while.cond, !llvm.loop !14

if.then9:                                         ; preds = %while.body, %if.end
  %fUnion.i.i9 = getelementptr inbounds i8, ptr %result, i64 8
  %6 = load i16, ptr %fUnion.i.i9, align 8
  %conv2.i5.i10 = and i16 %6, 1
  %tobool.i11.not = icmp eq i16 %conv2.i5.i10, 0
  br i1 %tobool.i11.not, label %if.else.i12, label %if.then.i20

if.then.i20:                                      ; preds = %if.then9
  call void @_ZN6icu_7513UnicodeString7unBogusEv(ptr noundef nonnull align 8 dereferenceable(64) %result)
  br label %return

if.else.i12:                                      ; preds = %if.then9
  %cmp.i.i.i13 = icmp slt i16 %6, 0
  %7 = ashr i16 %6, 5
  %shr.i.i.i14 = sext i16 %7 to i32
  %fLength.i.i15 = getelementptr inbounds i8, ptr %result, i64 12
  %8 = load i32, ptr %fLength.i.i15, align 4
  %cond.i.i16 = select i1 %cmp.i.i.i13, i32 %8, i32 %shr.i.i.i14
  %cmp3.i17.not = icmp eq i32 %cond.i.i16, 0
  br i1 %cmp3.i17.not, label %return, label %if.then4.i19

if.then4.i19:                                     ; preds = %if.else.i12
  %9 = and i16 %6, 30
  store i16 %9, ptr %fUnion.i.i9, align 8
  br label %return

if.else:                                          ; preds = %while.cond
  %key = getelementptr inbounds i8, ptr %call.i8, i64 16
  %10 = load ptr, ptr %key, align 8
  %call11 = call noundef nonnull align 8 dereferenceable(64) ptr @_ZN6icu_7513UnicodeStringaSERKS0_(ptr noundef nonnull align 8 dereferenceable(64) %result, ptr noundef nonnull align 8 dereferenceable(64) %10)
  br label %return

return:                                           ; preds = %if.then4.i19, %if.else.i12, %if.then.i20, %if.then4.i, %if.else.i, %if.then.i, %if.else
  ret ptr %result
}